target datalayout = "e-m:e-p270:32:32-p271:32:32-p272:64:64-i64:64-i128:128-f80:128-n8:16:32:64-S128"
target triple = "x86_64-unknown-linux-gnu"

%struct.MachineClass = type { %struct.ObjectClass, ptr, ptr, ptr, ptr, ptr, ptr, ptr, ptr, ptr, i32, i32, i32, i32, i32, i8, i8, ptr, ptr, ptr, ptr, ptr, ptr, i64, ptr, i8, i8, i8, i32, i8, i8, i32, ptr, ptr, i8, i8, i8, i8, i8, i8, i8, i8, %struct.SMPCompatProps, ptr, ptr, ptr, ptr, ptr, ptr, ptr }
%struct.ObjectClass = type { ptr, ptr, [4 x ptr], [4 x ptr], ptr, ptr }
%struct.SMPCompatProps = type { i8, i8, i8, i8, i8, i8 }
%struct.MachineState = type { %struct.Object, ptr, ptr, ptr, i32, ptr, i8, i8, i8, i8, ptr, i8, i8, i8, ptr, ptr, ptr, ptr, ptr, i64, i64, i64, %struct.BootConfiguration, ptr, ptr, ptr, ptr, ptr, ptr, %struct.CpuTopology, ptr, ptr }
%struct.Object = type { ptr, ptr, ptr, i32, ptr }
%struct.BootConfiguration = type { ptr, ptr, i8, i8, ptr, i8, i64, i8, i64, i8, i8 }
%struct.CpuTopology = type { i32, i32, i32, i32, i32, i32, i32, i32, i32 }
%struct.ErrorPropagator = type { ptr, ptr }
%struct.MemorySizeConfiguration = type { i8, i64, i8, i64, i8, i64 }

@.str.199 = private unnamed_addr constant [26 x i8] c"../qemu/hw/core/machine.c\00", align 1
@error_fatal = external global ptr, align 8
@.str.225 = private unnamed_addr constant [8 x i8] c"machine\00", align 1
@.str.226 = private unnamed_addr constant [98 x i8] c"/home/dtcxzyw/WorkSpace/Projects/compilers/llvm-opt-benchmark/bench/qemu/qemu/include/hw/boards.h\00", align 1
@__func__.MACHINE_GET_CLASS = private unnamed_addr constant [18 x i8] c"MACHINE_GET_CLASS\00", align 1
@__func__.MACHINE = private unnamed_addr constant [8 x i8] c"MACHINE\00", align 1
@__func__.machine_set_mem = private unnamed_addr constant [16 x i8] c"machine_set_mem\00", align 1
@.str.300 = private unnamed_addr constant [19 x i8] c"ram size too large\00", align 1
@.str.301 = private unnamed_addr constant [102 x i8] c"invalid value of maxmem: maximum memory size (0x%lx) must be at least the initial memory size (0x%lx)\00", align 1
@.str.302 = private unnamed_addr constant [129 x i8] c"invalid value of maxmem: memory slots were specified but maximum memory size (0x%lx) is equal to the initial memory size (0x%lx)\00", align 1
@.str.303 = private unnamed_addr constant [32 x i8] c"slots specified but no max-size\00", align 1

; Function Attrs: nounwind sspstrong uwtable
define internal void @error_propagator_cleanup(ptr noundef %prop) #0 {
entry:
  %prop.addr = alloca ptr, align 8
  store ptr %prop, ptr %prop.addr, align 8
  %0 = load ptr, ptr %prop.addr, align 8
  %errp = getelementptr inbounds %struct.ErrorPropagator, ptr %0, i32 0, i32 1
  %1 = load ptr, ptr %errp, align 8
  %2 = load ptr, ptr %prop.addr, align 8
  %local_err = getelementptr inbounds %struct.ErrorPropagator, ptr %2, i32 0, i32 0
  %3 = load ptr, ptr %local_err, align 8
  call void @error_propagate(ptr noundef %1, ptr noundef %3)
  ret void
}

; Function Attrs: nounwind sspstrong uwtable
define internal void @glib_auto_cleanup_ErrorPropagator(ptr noundef %_ptr) #0 {
entry:
  %_ptr.addr = alloca ptr, align 8
  store ptr %_ptr, ptr %_ptr.addr, align 8
  %0 = load ptr, ptr %_ptr.addr, align 8
  call void @error_propagator_cleanup(ptr noundef %0)
  ret void
}

; Function Attrs: nounwind sspstrong uwtable
define internal ptr @MACHINE_GET_CLASS(ptr noundef %obj) #0 {
entry:
  %obj.addr = alloca ptr, align 8
  store ptr %obj, ptr %obj.addr, align 8
  %0 = load ptr, ptr %obj.addr, align 8
  %call = call ptr @object_get_class(ptr noundef %0)
  %call1 = call ptr @object_class_dynamic_cast_assert(ptr noundef %call, ptr noundef @.str.225, ptr noundef @.str.226, i32 noundef 23, ptr noundef @__func__.MACHINE_GET_CLASS)
  ret ptr %call1
}

; Function Attrs: nounwind sspstrong uwtable
define internal ptr @MACHINE(ptr noundef %obj) #0 {
entry:
  %obj.addr = alloca ptr, align 8
  store ptr %obj, ptr %obj.addr, align 8
  %0 = load ptr, ptr %obj.addr, align 8
  %call = call ptr @object_dynamic_cast_assert(ptr noundef %0, ptr noundef @.str.225, ptr noundef @.str.226, i32 noundef 23, ptr noundef @__func__.MACHINE)
  ret ptr %call
}

; Function Attrs: nounwind sspstrong uwtable
define internal void @machine_set_mem(ptr noundef %obj, ptr noundef %v, ptr noundef %name, ptr noundef %opaque, ptr noundef %errp) #0 {
entry:
  %obj.addr = alloca ptr, align 8
  %v.addr = alloca ptr, align 8
  %name.addr = alloca ptr, align 8
  %opaque.addr = alloca ptr, align 8
  %errp.addr = alloca ptr, align 8
  %_auto_errp_prop = alloca %struct.ErrorPropagator, align 8
  %ms = alloca ptr, align 8
  %mc = alloca ptr, align 8
  %mem = alloca ptr, align 8
  %cleanup.dest.slot = alloca i32, align 4
  store ptr %obj, ptr %obj.addr, align 8
  store ptr %v, ptr %v.addr, align 8
  store ptr %name, ptr %name.addr, align 8
  store ptr %opaque, ptr %opaque.addr, align 8
  store ptr %errp, ptr %errp.addr, align 8
  %local_err = getelementptr inbounds %struct.ErrorPropagator, ptr %_auto_errp_prop, i32 0, i32 0
  store ptr null, ptr %local_err, align 8
  %errp1 = getelementptr inbounds %struct.ErrorPropagator, ptr %_auto_errp_prop, i32 0, i32 1
  %0 = load ptr, ptr %errp.addr, align 8
  store ptr %0, ptr %errp1, align 8
  br label %do.body

do.body:                                          ; preds = %entry
  %1 = load ptr, ptr %errp.addr, align 8
  %tobool = icmp ne ptr %1, null
  br i1 %tobool, label %lor.lhs.false, label %if.then

lor.lhs.false:                                    ; preds = %do.body
  %2 = load ptr, ptr %errp.addr, align 8
  %cmp = icmp eq ptr %2, @error_fatal
  br i1 %cmp, label %if.then, label %if.end

if.then:                                          ; preds = %lor.lhs.false, %do.body
  %local_err2 = getelementptr inbounds %struct.ErrorPropagator, ptr %_auto_errp_prop, i32 0, i32 0
  store ptr %local_err2, ptr %errp.addr, align 8
  br label %if.end

if.end:                                           ; preds = %if.then, %lor.lhs.false
  br label %do.cond

do.cond:                                          ; preds = %if.end
  br label %do.end

do.end:                                           ; preds = %do.cond
  %3 = load ptr, ptr %obj.addr, align 8
  %call = call ptr @MACHINE(ptr noundef %3)
  store ptr %call, ptr %ms, align 8
  %4 = load ptr, ptr %obj.addr, align 8
  %call3 = call ptr @MACHINE_GET_CLASS(ptr noundef %4)
  store ptr %call3, ptr %mc, align 8
  %5 = load ptr, ptr %v.addr, align 8
  %6 = load ptr, ptr %name.addr, align 8
  %7 = load ptr, ptr %errp.addr, align 8
  %call4 = call zeroext i1 @visit_type_MemorySizeConfiguration(ptr noundef %5, ptr noundef %6, ptr noundef %mem, ptr noundef %7)
  br i1 %call4, label %if.end6, label %if.then5

if.then5:                                         ; preds = %do.end
  store i32 1, ptr %cleanup.dest.slot, align 4
  br label %cleanup

if.end6:                                          ; preds = %do.end
  %8 = load ptr, ptr %mem, align 8
  %has_size = getelementptr inbounds %struct.MemorySizeConfiguration, ptr %8, i32 0, i32 0
  %9 = load i8, ptr %has_size, align 8
  %tobool7 = trunc i8 %9 to i1
  br i1 %tobool7, label %if.end10, label %if.then8

if.then8:                                         ; preds = %if.end6
  %10 = load ptr, ptr %mem, align 8
  %has_size9 = getelementptr inbounds %struct.MemorySizeConfiguration, ptr %10, i32 0, i32 0
  store i8 1, ptr %has_size9, align 8
  %11 = load ptr, ptr %mc, align 8
  %default_ram_size = getelementptr inbounds %struct.MachineClass, ptr %11, i32 0, i32 23
  %12 = load i64, ptr %default_ram_size, align 8
  %13 = load ptr, ptr %mem, align 8
  %size = getelementptr inbounds %struct.MemorySizeConfiguration, ptr %13, i32 0, i32 1
  store i64 %12, ptr %size, align 8
  br label %if.end10

if.end10:                                         ; preds = %if.then8, %if.end6
  %14 = load ptr, ptr %mem, align 8
  %size11 = getelementptr inbounds %struct.MemorySizeConfiguration, ptr %14, i32 0, i32 1
  %15 = load i64, ptr %size11, align 8
  %add = add i64 %15, 8192
  %sub = sub i64 %add, 1
  %div = udiv i64 %sub, 8192
  %mul = mul i64 %div, 8192
  %16 = load ptr, ptr %mem, align 8
  %size12 = getelementptr inbounds %struct.MemorySizeConfiguration, ptr %16, i32 0, i32 1
  store i64 %mul, ptr %size12, align 8
  %17 = load ptr, ptr %mc, align 8
  %fixup_ram_size = getelementptr inbounds %struct.MachineClass, ptr %17, i32 0, i32 49
  %18 = load ptr, ptr %fixup_ram_size, align 8
  %tobool13 = icmp ne ptr %18, null
  br i1 %tobool13, label %if.then14, label %if.end19

if.then14:                                        ; preds = %if.end10
  %19 = load ptr, ptr %mc, align 8
  %fixup_ram_size15 = getelementptr inbounds %struct.MachineClass, ptr %19, i32 0, i32 49
  %20 = load ptr, ptr %fixup_ram_size15, align 8
  %21 = load ptr, ptr %mem, align 8
  %size16 = getelementptr inbounds %struct.MemorySizeConfiguration, ptr %21, i32 0, i32 1
  %22 = load i64, ptr %size16, align 8
  %call17 = call i64 %20(i64 noundef %22)
  %23 = load ptr, ptr %mem, align 8
  %size18 = getelementptr inbounds %struct.MemorySizeConfiguration, ptr %23, i32 0, i32 1
  store i64 %call17, ptr %size18, align 8
  br label %if.end19

if.end19:                                         ; preds = %if.then14, %if.end10
  %24 = load ptr, ptr %mem, align 8
  %size20 = getelementptr inbounds %struct.MemorySizeConfiguration, ptr %24, i32 0, i32 1
  %25 = load i64, ptr %size20, align 8
  %26 = load ptr, ptr %mem, align 8
  %size21 = getelementptr inbounds %struct.MemorySizeConfiguration, ptr %26, i32 0, i32 1
  %27 = load i64, ptr %size21, align 8
  %cmp22 = icmp ne i64 %25, %27
  br i1 %cmp22, label %if.then23, label %if.end24

if.then23:                                        ; preds = %if.end19
  %28 = load ptr, ptr %errp.addr, align 8
  call void (ptr, ptr, i32, ptr, ptr, ...) @error_setg_internal(ptr noundef %28, ptr noundef @.str.199, i32 noundef 595, ptr noundef @__func__.machine_set_mem, ptr noundef @.str.300)
  br label %out_free

if.end24:                                         ; preds = %if.end19
  %29 = load ptr, ptr %mem, align 8
  %has_max_size = getelementptr inbounds %struct.MemorySizeConfiguration, ptr %29, i32 0, i32 2
  %30 = load i8, ptr %has_max_size, align 8
  %tobool25 = trunc i8 %30 to i1
  br i1 %tobool25, label %if.then26, label %if.else

if.then26:                                        ; preds = %if.end24
  %31 = load ptr, ptr %mem, align 8
  %max_size = getelementptr inbounds %struct.MemorySizeConfiguration, ptr %31, i32 0, i32 3
  %32 = load i64, ptr %max_size, align 8
  %33 = load ptr, ptr %mem, align 8
  %size27 = getelementptr inbounds %struct.MemorySizeConfiguration, ptr %33, i32 0, i32 1
  %34 = load i64, ptr %size27, align 8
  %cmp28 = icmp ult i64 %32, %34
  br i1 %cmp28, label %if.then29, label %if.end32

if.then29:                                        ; preds = %if.then26
  %35 = load ptr, ptr %errp.addr, align 8
  %36 = load ptr, ptr %mem, align 8
  %max_size30 = getelementptr inbounds %struct.MemorySizeConfiguration, ptr %36, i32 0, i32 3
  %37 = load i64, ptr %max_size30, align 8
  %38 = load ptr, ptr %mem, align 8
  %size31 = getelementptr inbounds %struct.MemorySizeConfiguration, ptr %38, i32 0, i32 1
  %39 = load i64, ptr %size31, align 8
  call void (ptr, ptr, i32, ptr, ptr, ...) @error_setg_internal(ptr noundef %35, ptr noundef @.str.199, i32 noundef 604, ptr noundef @__func__.machine_set_mem, ptr noundef @.str.301, i64 noundef %37, i64 noundef %39)
  br label %out_free

if.end32:                                         ; preds = %if.then26
  %40 = load ptr, ptr %mem, align 8
  %has_slots = getelementptr inbounds %struct.MemorySizeConfiguration, ptr %40, i32 0, i32 4
  %41 = load i8, ptr %has_slots, align 8
  %tobool33 = trunc i8 %41 to i1
  br i1 %tobool33, label %land.lhs.true, label %if.end42

land.lhs.true:                                    ; preds = %if.end32
  %42 = load ptr, ptr %mem, align 8
  %slots = getelementptr inbounds %struct.MemorySizeConfiguration, ptr %42, i32 0, i32 5
  %43 = load i64, ptr %slots, align 8
  %tobool34 = icmp ne i64 %43, 0
  br i1 %tobool34, label %land.lhs.true35, label %if.end42

land.lhs.true35:                                  ; preds = %land.lhs.true
  %44 = load ptr, ptr %mem, align 8
  %max_size36 = getelementptr inbounds %struct.MemorySizeConfiguration, ptr %44, i32 0, i32 3
  %45 = load i64, ptr %max_size36, align 8
  %46 = load ptr, ptr %mem, align 8
  %size37 = getelementptr inbounds %struct.MemorySizeConfiguration, ptr %46, i32 0, i32 1
  %47 = load i64, ptr %size37, align 8
  %cmp38 = icmp eq i64 %45, %47
  br i1 %cmp38, label %if.then39, label %if.end42

if.then39:                                        ; preds = %land.lhs.true35
  %48 = load ptr, ptr %errp.addr, align 8
  %49 = load ptr, ptr %mem, align 8
  %max_size40 = getelementptr inbounds %struct.MemorySizeConfiguration, ptr %49, i32 0, i32 3
  %50 = load i64, ptr %max_size40, align 8
  %51 = load ptr, ptr %mem, align 8
  %size41 = getelementptr inbounds %struct.MemorySizeConfiguration, ptr %51, i32 0, i32 1
  %52 = load i64, ptr %size41, align 8
  call void (ptr, ptr, i32, ptr, ptr, ...) @error_setg_internal(ptr noundef %48, ptr noundef @.str.199, i32 noundef 611, ptr noundef @__func__.machine_set_mem, ptr noundef @.str.302, i64 noundef %50, i64 noundef %52)
  br label %out_free

if.end42:                                         ; preds = %land.lhs.true35, %land.lhs.true, %if.end32
  %53 = load ptr, ptr %mem, align 8
  %max_size43 = getelementptr inbounds %struct.MemorySizeConfiguration, ptr %53, i32 0, i32 3
  %54 = load i64, ptr %max_size43, align 8
  %55 = load ptr, ptr %ms, align 8
  %maxram_size = getelementptr inbounds %struct.MachineState, ptr %55, i32 0, i32 20
  store i64 %54, ptr %maxram_size, align 8
  br label %if.end50

if.else:                                          ; preds = %if.end24
  %56 = load ptr, ptr %mem, align 8
  %has_slots44 = getelementptr inbounds %struct.MemorySizeConfiguration, ptr %56, i32 0, i32 4
  %57 = load i8, ptr %has_slots44, align 8
  %tobool45 = trunc i8 %57 to i1
  br i1 %tobool45, label %if.then46, label %if.end47

if.then46:                                        ; preds = %if.else
  %58 = load ptr, ptr %errp.addr, align 8
  call void (ptr, ptr, i32, ptr, ptr, ...) @error_setg_internal(ptr noundef %58, ptr noundef @.str.199, i32 noundef 617, ptr noundef @__func__.machine_set_mem, ptr noundef @.str.303)
  br label %out_free

if.end47:                                         ; preds = %if.else
  %59 = load ptr, ptr %mem, align 8
  %size48 = getelementptr inbounds %struct.MemorySizeConfiguration, ptr %59, i32 0, i32 1
  %60 = load i64, ptr %size48, align 8
  %61 = load ptr, ptr %ms, align 8
  %maxram_size49 = getelementptr inbounds %struct.MachineState, ptr %61, i32 0, i32 20
  store i64 %60, ptr %maxram_size49, align 8
  br label %if.end50

if.end50:                                         ; preds = %if.end47, %if.end42
  %62 = load ptr, ptr %mem, align 8
  %size51 = getelementptr inbounds %struct.MemorySizeConfiguration, ptr %62, i32 0, i32 1
  %63 = load i64, ptr %size51, align 8
  %64 = load ptr, ptr %ms, align 8
  %ram_size = getelementptr inbounds %struct.MachineState, ptr %64, i32 0, i32 19
  store i64 %63, ptr %ram_size, align 8
  %65 = load ptr, ptr %mem, align 8
  %has_slots52 = getelementptr inbounds %struct.MemorySizeConfiguration, ptr %65, i32 0, i32 4
  %66 = load i8, ptr %has_slots52, align 8
  %tobool53 = trunc i8 %66 to i1
  br i1 %tobool53, label %cond.true, label %cond.false

cond.true:                                        ; preds = %if.end50
  %67 = load ptr, ptr %mem, align 8
  %slots54 = getelementptr inbounds %struct.MemorySizeConfiguration, ptr %67, i32 0, i32 5
  %68 = load i64, ptr %slots54, align 8
  br label %cond.end

cond.false:                                       ; preds = %if.end50
  br label %cond.end

cond.end:                                         ; preds = %cond.false, %cond.true
  %cond = phi i64 [ %68, %cond.true ], [ 0, %cond.false ]
  %69 = load ptr, ptr %ms, align 8
  %ram_slots = getelementptr inbounds %struct.MachineState, ptr %69, i32 0, i32 21
  store i64 %cond, ptr %ram_slots, align 8
  br label %out_free

out_free:                                         ; preds = %cond.end, %if.then46, %if.then39, %if.then29, %if.then23
  %70 = load ptr, ptr %mem, align 8
  call void @qapi_free_MemorySizeConfiguration(ptr noundef %70)
  store i32 0, ptr %cleanup.dest.slot, align 4
  br label %cleanup

cleanup:                                          ; preds = %out_free, %if.then5
  call void @glib_auto_cleanup_ErrorPropagator(ptr noundef %_auto_errp_prop)
  %cleanup.dest = load i32, ptr %cleanup.dest.slot, align 4
  switch i32 %cleanup.dest, label %unreachable [
    i32 0, label %cleanup.cont
    i32 1, label %cleanup.cont
  ]

cleanup.cont:                                     ; preds = %cleanup, %cleanup
  ret void

unreachable:                                      ; preds = %cleanup
  unreachable
}