; Function Attrs: nounwind sspstrong uwtable
define internal void @machine_set_mem(ptr noundef %obj, ptr noundef %v, ptr noundef %name, ptr readnone captures(none) %opaque, ptr noundef %errp) #0 {
entry:
  %_auto_errp_prop = alloca %struct.ErrorPropagator, align 8
  %mem = alloca ptr, align 8
  store ptr null, ptr %_auto_errp_prop, align 8
  %errp1 = getelementptr inbounds nuw i8, ptr %_auto_errp_prop, i64 8
  store ptr %errp, ptr %errp1, align 8
  %tobool = icmp eq ptr %errp, null
  %cmp = icmp eq ptr %errp, @error_fatal
  %or.cond = or i1 %tobool, %cmp
  %spec.select = select i1 %or.cond, ptr %_auto_errp_prop, ptr %errp
  %call.i = tail call ptr @object_dynamic_cast_assert(ptr noundef %obj, ptr noundef nonnull @.str.225, ptr noundef nonnull @.str.226, i32 noundef 23, ptr noundef nonnull @__func__.MACHINE) #16
  %call.i20 = tail call ptr @object_get_class(ptr noundef %obj) #16
  %call1.i = tail call ptr @object_class_dynamic_cast_assert(ptr noundef %call.i20, ptr noundef nonnull @.str.225, ptr noundef nonnull @.str.226, i32 noundef 23, ptr noundef nonnull @__func__.MACHINE_GET_CLASS) #16
  %call4 = call zeroext i1 @visit_type_MemorySizeConfiguration(ptr noundef %v, ptr noundef %name, ptr noundef nonnull %mem, ptr noundef %spec.select) #16
  br i1 %call4, label %if.end6, label %cleanup

if.end6:                                          ; preds = %entry
  %0 = load ptr, ptr %mem, align 8
  %1 = load i8, ptr %0, align 8
  %tobool7 = trunc i8 %1 to i1
  br i1 %tobool7, label %if.end6.if.end10_crit_edge, label %if.then8

if.end6.if.end10_crit_edge:                       ; preds = %if.end6
  %size11.phi.trans.insert = getelementptr inbounds nuw i8, ptr %0, i64 8
  %.pre = load i64, ptr %size11.phi.trans.insert, align 8
  br label %if.end10

if.then8:                                         ; preds = %if.end6
  store i8 1, ptr %0, align 8
  %default_ram_size = getelementptr inbounds nuw i8, ptr %call1.i, i64 240
  %2 = load i64, ptr %default_ram_size, align 8
  %3 = load ptr, ptr %mem, align 8
  %size = getelementptr inbounds nuw i8, ptr %3, i64 8
  store i64 %2, ptr %size, align 8
  br label %if.end10

if.end10:                                         ; preds = %if.end6.if.end10_crit_edge, %if.then8
  %4 = phi i64 [ %2, %if.then8 ], [ %.pre, %if.end6.if.end10_crit_edge ]
  %5 = phi ptr [ %3, %if.then8 ], [ %0, %if.end6.if.end10_crit_edge ]
  %size11 = getelementptr inbounds nuw i8, ptr %5, i64 8
  %sub = add i64 %4, 8191
  %div17 = and i64 %sub, -8192
  store i64 %div17, ptr %size11, align 8
  %fixup_ram_size = getelementptr inbounds nuw i8, ptr %call1.i, i64 352
  %6 = load ptr, ptr %fixup_ram_size, align 8
  %tobool13.not = icmp eq ptr %6, null
  br i1 %tobool13.not, label %if.end19, label %if.then14

if.then14:                                        ; preds = %if.end10
  %call17 = call i64 %6(i64 noundef %div17) #16
  %7 = load ptr, ptr %mem, align 8
  %size18 = getelementptr inbounds nuw i8, ptr %7, i64 8
  store i64 %call17, ptr %size18, align 8
  br label %if.end19

if.end19:                                         ; preds = %if.then14, %if.end10
  %8 = phi i64 [ %call17, %if.then14 ], [ %div17, %if.end10 ]
  %9 = phi ptr [ %7, %if.then14 ], [ %5, %if.end10 ]
  %size20 = getelementptr inbounds nuw i8, ptr %9, i64 8
  %has_max_size = getelementptr inbounds nuw i8, ptr %9, i64 16
  %10 = load i8, ptr %has_max_size, align 8
  %tobool25 = trunc i8 %10 to i1
  br i1 %tobool25, label %if.then26, label %if.else

if.then26:                                        ; preds = %if.end19
  %max_size = getelementptr inbounds nuw i8, ptr %9, i64 24
  %11 = load i64, ptr %max_size, align 8
  %cmp28 = icmp ult i64 %11, %8
  br i1 %cmp28, label %if.then29, label %if.end32

if.then29:                                        ; preds = %if.then26
  call void (ptr, ptr, i32, ptr, ptr, ...) @error_setg_internal(ptr noundef nonnull %spec.select, ptr noundef nonnull @.str.199, i32 noundef 604, ptr noundef nonnull @__func__.machine_set_mem, ptr noundef nonnull @.str.301, i64 noundef %11, i64 noundef %8) #16
  br label %out_free

if.end32:                                         ; preds = %if.then26
  %has_slots = getelementptr inbounds nuw i8, ptr %9, i64 32
  %12 = load i8, ptr %has_slots, align 8
  %tobool33 = trunc i8 %12 to i1
  br i1 %tobool33, label %land.lhs.true, label %if.end50

land.lhs.true:                                    ; preds = %if.end32
  %slots = getelementptr inbounds nuw i8, ptr %9, i64 40
  %13 = load i64, ptr %slots, align 8
  %tobool34.not = icmp ne i64 %13, 0
  %cmp38 = icmp eq i64 %11, %8
  %or.cond18 = select i1 %tobool34.not, i1 %cmp38, i1 false
  br i1 %or.cond18, label %if.then39, label %if.end50

if.then39:                                        ; preds = %land.lhs.true
  call void (ptr, ptr, i32, ptr, ptr, ...) @error_setg_internal(ptr noundef nonnull %spec.select, ptr noundef nonnull @.str.199, i32 noundef 611, ptr noundef nonnull @__func__.machine_set_mem, ptr noundef nonnull @.str.302, i64 noundef %8, i64 noundef %8) #16
  br label %out_free

if.else:                                          ; preds = %if.end19
  %has_slots44 = getelementptr inbounds nuw i8, ptr %9, i64 32
  %14 = load i8, ptr %has_slots44, align 8
  %tobool45 = trunc i8 %14 to i1
  br i1 %tobool45, label %if.then46, label %if.end50

if.then46:                                        ; preds = %if.else
  call void (ptr, ptr, i32, ptr, ptr, ...) @error_setg_internal(ptr noundef nonnull %spec.select, ptr noundef nonnull @.str.199, i32 noundef 617, ptr noundef nonnull @__func__.machine_set_mem, ptr noundef nonnull @.str.303) #16
  br label %out_free

if.end50:                                         ; preds = %if.else, %if.end32, %land.lhs.true
  %.sink = phi i64 [ %11, %land.lhs.true ], [ %11, %if.end32 ], [ %8, %if.else ]
  %maxram_size49 = getelementptr inbounds nuw i8, ptr %call.i, i64 152
  store i64 %.sink, ptr %maxram_size49, align 8
  %15 = load i64, ptr %size20, align 8
  %ram_size = getelementptr inbounds nuw i8, ptr %call.i, i64 144
  store i64 %15, ptr %ram_size, align 8
  %has_slots52 = getelementptr inbounds nuw i8, ptr %9, i64 32
  %16 = load i8, ptr %has_slots52, align 8
  %tobool53 = trunc i8 %16 to i1
  br i1 %tobool53, label %cond.true, label %cond.end

cond.true:                                        ; preds = %if.end50
  %slots54 = getelementptr inbounds nuw i8, ptr %9, i64 40
  %17 = load i64, ptr %slots54, align 8
  br label %cond.end

cond.end:                                         ; preds = %if.end50, %cond.true
  %cond = phi i64 [ %17, %cond.true ], [ 0, %if.end50 ]
  %ram_slots = getelementptr inbounds nuw i8, ptr %call.i, i64 160
  store i64 %cond, ptr %ram_slots, align 8
  br label %out_free

out_free:                                         ; preds = %cond.end, %if.then46, %if.then39, %if.then29
  %18 = load ptr, ptr %mem, align 8
  call void @qapi_free_MemorySizeConfiguration(ptr noundef %18) #16
  br label %cleanup

cleanup:                                          ; preds = %entry, %out_free
  %_auto_errp_prop.val = load ptr, ptr %_auto_errp_prop, align 8
  %_auto_errp_prop.val19 = load ptr, ptr %errp1, align 8
  call void @error_propagate(ptr noundef %_auto_errp_prop.val19, ptr noundef %_auto_errp_prop.val) #16
  ret void
}